; Function Attrs: nounwind uwtable
define void @gvrender_beziercurve(ptr noundef %0, ptr noundef %1, i64 noundef %2, i32 noundef %3) local_unnamed_addr #0 {
  %5 = getelementptr inbounds nuw i8, ptr %0, i64 120
  %6 = load ptr, ptr %5, align 8, !tbaa !47
  %.not = icmp eq ptr %6, null
  br i1 %.not, label %68, label %7

7:                                                ; preds = %4
  %8 = getelementptr inbounds nuw i8, ptr %6, i64 208
  %9 = load ptr, ptr %8, align 8, !tbaa !132
  %.not21 = icmp eq ptr %9, null
  br i1 %.not21, label %68, label %10

10:                                               ; preds = %7
  %11 = getelementptr inbounds nuw i8, ptr %0, i64 32
  %12 = load ptr, ptr %11, align 8, !tbaa !107
  %13 = getelementptr inbounds nuw i8, ptr %12, i64 168
  %14 = load i32, ptr %13, align 8, !tbaa !108
  %.not22 = icmp eq i32 %14, 0
  br i1 %.not22, label %68, label %15

15:                                               ; preds = %10
  %16 = getelementptr inbounds nuw i8, ptr %0, i64 280
  %17 = load i32, ptr %16, align 8, !tbaa !46
  %18 = and i32 %17, 8192
  %.not23 = icmp eq i32 %18, 0
  br i1 %.not23, label %20, label %19

19:                                               ; preds = %15
  tail call void %9(ptr noundef nonnull %0, ptr noundef %1, i64 noundef %2, i32 noundef %3) #22
  br label %68

20:                                               ; preds = %15
  %.not.i = icmp eq i64 %2, 0
  br i1 %.not.i, label %.thread.i, label %22

.thread.i:                                        ; preds = %20
  %21 = tail call noalias ptr @calloc(i64 noundef 0, i64 noundef 16) #24
  br label %gv_calloc.exit

22:                                               ; preds = %20
  %mul.ov.i = icmp ugt i64 %2, 1152921504606846975
  br i1 %mul.ov.i, label %23, label %26

23:                                               ; preds = %22
  %24 = load ptr, ptr @stderr, align 8, !tbaa !131
  %25 = tail call i32 (ptr, ptr, ...) @fprintf(ptr noundef %24, ptr noundef nonnull @.str.14, i64 noundef %2, i64 noundef 16) #25
  tail call fastcc void @graphviz_exit() #26
  unreachable

26:                                               ; preds = %22
  %27 = tail call noalias ptr @calloc(i64 noundef %2, i64 noundef 16) #24
  %28 = icmp eq ptr %27, null
  br i1 %28, label %29, label %gv_calloc.exit

29:                                               ; preds = %26
  %30 = load ptr, ptr @stderr, align 8, !tbaa !131
  %31 = shl nuw i64 %2, 4
  %32 = tail call i32 (ptr, ptr, ...) @fprintf(ptr noundef %30, ptr noundef nonnull @.str.15, i64 noundef %31) #25
  tail call fastcc void @graphviz_exit() #26
  unreachable

gv_calloc.exit:                                   ; preds = %.thread.i, %26
  %33 = phi ptr [ %21, %.thread.i ], [ %27, %26 ]
  %34 = getelementptr inbounds nuw i8, ptr %0, i64 632
  %.sroa.014.0.copyload.i = load double, ptr %34, align 8, !tbaa !70
  %.sroa.516.0..sroa_idx.i = getelementptr inbounds nuw i8, ptr %0, i64 640
  %.sroa.516.0.copyload.i = load double, ptr %.sroa.516.0..sroa_idx.i, align 8, !tbaa !70
  %35 = getelementptr inbounds nuw i8, ptr %0, i64 480
  %36 = load double, ptr %35, align 8, !tbaa !71
  %37 = getelementptr inbounds nuw i8, ptr %0, i64 648
  %38 = load double, ptr %37, align 8, !tbaa !72
  %39 = fmul double %36, %38
  %40 = getelementptr inbounds nuw i8, ptr %0, i64 656
  %41 = load double, ptr %40, align 8, !tbaa !73
  %42 = fmul double %36, %41
  %43 = getelementptr inbounds nuw i8, ptr %0, i64 488
  %44 = load i32, ptr %43, align 8, !tbaa !74
  %.not.i24 = icmp eq i32 %44, 0
  br i1 %.not.i24, label %.preheader.i, label %.preheader36.i

.preheader36.i:                                   ; preds = %gv_calloc.exit
  br i1 %.not.i, label %gvrender_ptf_A.exit, label %.lr.ph.i

.preheader.i:                                     ; preds = %gv_calloc.exit
  br i1 %.not.i, label %gvrender_ptf_A.exit, label %.lr.ph40.i

.lr.ph.i:                                         ; preds = %.preheader36.i, %.lr.ph.i
  %.03538.i = phi i64 [ %56, %.lr.ph.i ], [ 0, %.preheader36.i ]
  %45 = getelementptr inbounds nuw %struct.pointf_s, ptr %1, i64 %.03538.i
  %46 = getelementptr inbounds nuw i8, ptr %45, i64 8
  %47 = load double, ptr %46, align 8, !tbaa !75
  %48 = fadd double %.sroa.516.0.copyload.i, %47
  %49 = fneg double %48
  %50 = fmul double %39, %49
  %51 = load double, ptr %45, align 8, !tbaa !76
  %52 = fadd double %.sroa.014.0.copyload.i, %51
  %53 = fmul double %42, %52
  %54 = getelementptr inbounds nuw %struct.pointf_s, ptr %33, i64 %.03538.i
  %55 = getelementptr inbounds nuw i8, ptr %54, i64 8
  store double %53, ptr %55, align 8, !tbaa !75
  store double %50, ptr %54, align 8, !tbaa !76
  %56 = add nuw i64 %.03538.i, 1
  %exitcond.not.i = icmp eq i64 %56, %2
  br i1 %exitcond.not.i, label %gvrender_ptf_A.exit, label %.lr.ph.i, !llvm.loop !77

.lr.ph40.i:                                       ; preds = %.preheader.i, %.lr.ph40.i
  %.039.i = phi i64 [ %67, %.lr.ph40.i ], [ 0, %.preheader.i ]
  %57 = getelementptr inbounds nuw %struct.pointf_s, ptr %1, i64 %.039.i
  %58 = load double, ptr %57, align 8, !tbaa !76
  %59 = fadd double %.sroa.014.0.copyload.i, %58
  %60 = fmul double %39, %59
  %61 = getelementptr inbounds nuw %struct.pointf_s, ptr %33, i64 %.039.i
  store double %60, ptr %61, align 8, !tbaa !76
  %62 = getelementptr inbounds nuw i8, ptr %57, i64 8
  %63 = load double, ptr %62, align 8, !tbaa !75
  %64 = fadd double %.sroa.516.0.copyload.i, %63
  %65 = fmul double %42, %64
  %66 = getelementptr inbounds nuw i8, ptr %61, i64 8
  store double %65, ptr %66, align 8, !tbaa !75
  %67 = add nuw i64 %.039.i, 1
  %exitcond44.not.i = icmp eq i64 %67, %2
  br i1 %exitcond44.not.i, label %gvrender_ptf_A.exit, label %.lr.ph40.i, !llvm.loop !79

gvrender_ptf_A.exit:                              ; preds = %.lr.ph.i, %.lr.ph40.i, %.preheader36.i, %.preheader.i
  tail call void %9(ptr noundef %0, ptr noundef %33, i64 noundef %2, i32 noundef %3) #22
  tail call void @free(ptr noundef %33) #22
  br label %68

68:                                               ; preds = %7, %10, %gvrender_ptf_A.exit, %19, %4
  ret void
}